(dp1
(Vewffe
S'failed'
tp2
ccopy_reg
_reconstructor
p3
(cpyspider.libs.counter
TimebaseAverageWindowCounter
p4
c__builtin__
object
p5
NtRp6
(dp7
S'_first_data_time'
p8
F1502881266.2706499
sS'window_size'
p9
I600
sS'times'
p10
ccollections
deque
p11
((lp12
F1502978180.369159
aF1502978368.63255
aF1502979199.1973829
aF1502979472.9941831
aF1502981219.3386321
aF1502981492.9518969
aF1502981762.4496491
aF1502982193.9559419
aF1502986305.1991229
aF1502986901.7811849
aF1502987216.1468511
aF1503055845.385653
aF1503056147.8197219
aF1503058565.220191
aF1503059776.9427841
aF1503062498.7934561
aF1503062800.22105
aF1503063102.636029
aF1503063405.0587361
aF1503063706.4775169
aF1503064008.8984621
aF1503064312.330267
aF1503081072.802429
aF1503081375.210367
aF1503081677.632272
aF1503081980.054117
aF1503082586.8650939
aF1503082887.281445
aF1503083190.7073641
aF1503083493.206778
aF1503083793.6208091
aF1503084096.042449
aF1503084399.46681
aF1503084701.859277
aF1503085004.26636
aF1503085911.54808
aF1503086214.0407181
aF1503086790.026798
aF1503087092.4216759
aI600
tRp13
sS'window_interval'
p14
I144
sS'values'
p15
g11
((lp16
I1
aI1
aI1
aI2
aI2
aI1
aI1
aI1
aI2
aI1
aI1
aI1
aI1
aI1
aI1
aI1
aI2
aI2
aI2
aI3
aI3
aI2
aI1
aI1
aI3
aI2
aI1
aI3
aI2
aI1
aI3
aI3
aI1
aI1
aI1
aI1
aI2
aI1
aI1
aI600
tRp17
sS'cache_value'
p18
I1
sS'max_window_size'
p19
I600
sS'cache_start'
p20
F1503100804.1221659
sbs(S'ewffe'
S'pending'
tp21
g3
(g4
g5
NtRp22
(dp23
g8
F1502814054.8198161
sg9
I600
sg10
g11
((lp24
F1502978138.6668949
aF1502978284.139183
aF1502978564.651813
aF1502979031.3700211
aF1502979177.1182029
aF1502979335.4204071
aF1502979573.04633
aF1502980264.672384
aF1502980419.5423501
aF1502980581.9217861
aF1502980771.7033401
aF1502981085.2224131
aF1502981231.7884469
aF1502981390.356643
aF1502981538.0245731
aF1502981685.087106
aF1502981832.0147991
aF1502981986.09817
aF1502982131.2537129
aF1502982278.066817
aF1502986292.2565789
aF1502986445.521894
aF1502986610.4520309
aF1502986763.335052
aF1502986913.8172801
aF1502987102.622411
aF1502987274.9833391
aF1503087093.723192
aI600
tRp25
sg14
I144
sg15
g11
((lp26
I196
aI62
aI2
aI154
aI51
aI144
aI5
aI98
aI26
aI82
aI27
aI83
aI114
aI139
aI73
aI54
aI69
aI66
aI82
aI71
aI56
aI61
aI26
aI65
aI69
aI60
aI42
aI1
aI600
tRp27
sg18
I2
sg19
I600
sg20
F1503100800.1075339
sbs(Vewffe
S'retry'
tp28
g3
(g4
g5
NtRp29
(dp30
g8
F1502814061.7358611
sg9
I600
sg10
g11
((lp31
F1502978176.8280001
aF1502978322.9521151
aF1502978669.742156
aF1502979039.0058179
aF1502979216.0480421
aF1502979361.7203491
aF1502979521.5141649
aF1502979692.026427
aF1502980274.297771
aF1502980419.530072
aF1502980586.6093531
aF1502980752.3105209
aF1502980896.876039
aF1502981070.2756701
aF1502981254.485862
aF1502981399.2988131
aF1502981546.3434629
aF1502981691.993176
aF1502981851.267813
aF1502982007.3556271
aF1502982158.1511941
aF1502982305.970268
aF1502986286.027003
aF1502986432.7909529
aF1502986580.831794
aF1502986726.1872759
aF1502986874.2641661
aF1502987034.1574759
aF1502987184.1215911
aF1502987343.5305481
aF1503055231.4985411
aF1503055540.9584811
aF1503055843.378083
aF1503056145.8081379
aF1503056448.2377729
aF1503056750.6641459
aF1503057053.092778
aF1503057355.5202739
aF1503057657.9513609
aF1503057960.3605151
aF1503058262.8036051
aF1503058566.223454
aF1503058867.644124
aF1503059170.078284
aF1503059472.5107501
aF1503059774.935395
aF1503060077.3560081
aF1503060379.7841821
aF1503060682.213877
aF1503060984.640907
aF1503061287.068538
aF1503061589.512641
aF1503061891.931505
aF1503062194.3578191
aF1503062496.7856879
aF1503062799.2179289
aF1503063101.6321299
aF1503063404.0552311
aF1503064311.323144
aF1503064613.7514451
aF1503065189.7508121
aF1503065492.184164
aI600
tRp32
sg14
I144
sg15
g11
((lp33
I10
aI90
aI20
aI11
aI12
aI22
aI9
aI4
aI4
aI31
aI21
aI7
aI22
aI49
aI19
aI35
aI12
aI12
aI14
aI36
aI11
aI15
aI16
aI22
aI8
aI13
aI18
aI24
aI13
aI1
aI10
aI3
aI2
aI2
aI3
aI3
aI3
aI3
aI3
aI3
aI3
aI2
aI3
aI3
aI3
aI2
aI3
aI3
aI3
aI3
aI3
aI3
aI3
aI3
aI2
aI1
aI1
aI1
aI1
aI2
aI1
aI1
aI600
tRp34
sg18
I3
sg19
I600
sg20
F1503100800.5090711
sbs(Vewffe
S'success'
tp35
g3
(g4
g5
NtRp36
(dp37
g8
F1502814057.417721
sg9
I600
sg10
g11
((lp38
F1502978139.3680699
aF1502978284.1185141
aF1502978668.6355219
aF1502979031.357969
aF1502979176.897269
aF1502979321.7417669
aF1502979465.761889
aF1502980264.6634729
aF1502980409.887341
aF1502980555.360894
aF1502980700.8867819
aF1502980850.9738469
aF1502980997.1103849
aF1502981141.9538071
aF1502981286.573745
aF1502981431.305238
aF1502981575.6501269
aF1502981720.48369
aF1502981865.8238599
aF1502982012.1668611
aF1502982158.124557
aF1502982303.5563631
aF1502986292.2490511
aF1502986437.69328
aF1502986584.3335991
aF1502986728.5906539
aF1502986874.254389
aF1502987018.604887
aF1502987165.6471829
aF1502987311.9018669
aF1503087094.123363
aI600
tRp39
sg14
I144
sg15
g11
((lp40
I81
aI45
aI1
aI74
aI65
aI78
aI51
aI63
aI55
aI66
aI42
aI57
aI56
aI64
aI78
aI125
aI101
aI74
aI82
aI76
aI71
aI53
aI60
aI66
aI55
aI59
aI76
aI60
aI60
aI25
aI1
aI600
tRp41
sg18
I1
sg19
I600
sg20
F1503100805.843173
sbs.