(dp1
(Vewffe
S'failed'
p2
tp3
ccopy_reg
_reconstructor
p4
(cpyspider.libs.counter
TimebaseAverageWindowCounter
p5
c__builtin__
object
p6
NtRp7
(dp8
S'_first_data_time'
p9
F1503055845.385649
sS'window_size'
p10
I60
sS'times'
p11
ccollections
deque
p12
((lp13
F1503058565.2201841
aF1503059776.9427769
aF1503062498.793453
aF1503062800.2210431
aF1503063102.636023
aF1503063405.0587289
aF1503063706.4775109
aF1503064008.8984549
aF1503064312.33026
aF1503081072.802423
aF1503081375.210361
aF1503081677.632261
aF1503081980.054106
aF1503082586.865082
aF1503082887.2814391
aF1503083190.7073569
aF1503083493.206768
aF1503083793.6208031
aF1503084096.0424421
aF1503084399.4668031
aF1503084701.859271
aF1503085004.2663541
aF1503085911.5480721
aF1503086214.0407109
aF1503086790.0267911
aF1503087092.42167
aI60
tRp14
sS'window_interval'
p15
I60
sS'values'
p16
g12
((lp17
I1
aI1
aI1
aI2
aI2
aI2
aI3
aI3
aI2
aI1
aI1
aI3
aI2
aI1
aI3
aI2
aI1
aI3
aI3
aI1
aI1
aI1
aI1
aI2
aI1
aI1
aI60
tRp18
sS'cache_value'
p19
I1
sS'max_window_size'
p20
I60
sS'cache_start'
p21
F1503100804.12216
sbs(Vewffe
p22
S'pending'
p23
tp24
g4
(g5
g6
NtRp25
(dp26
g9
F1503087093.7231879
sg10
I0
sg11
g12
((lp27
F1503087093.7231879
aI60
tRp28
sg15
I60
sg16
g12
((lp29
I1
aI60
tRp30
sg19
I2
sg20
I60
sg21
F1503100800.107527
sbs(Vewffe
S'retry'
tp31
g4
(g5
g6
NtRp32
(dp33
g9
F1502986286.027
sg10
I60
sg11
g12
((lp34
F1503058262.8035991
aF1503058566.223449
aF1503058867.644119
aF1503059170.0782771
aF1503059472.5107441
aF1503059774.935389
aF1503060077.356003
aF1503060379.7841761
aF1503060682.213871
aF1503060984.6409011
aF1503061287.068532
aF1503061589.512635
aF1503061891.9315021
aF1503062194.3578129
aF1503062496.7856779
aF1503062799.2179241
aF1503063101.6321239
aF1503063404.0552261
aF1503064311.3231339
aF1503064613.7514391
aF1503065189.750802
aF1503065492.184159
aI60
tRp35
sg15
I60
sg16
g12
((lp36
I3
aI2
aI3
aI3
aI3
aI2
aI3
aI3
aI3
aI3
aI3
aI3
aI3
aI3
aI2
aI1
aI1
aI1
aI1
aI2
aI1
aI1
aI60
tRp37
sg19
I3
sg20
I60
sg21
F1503100800.5090649
sbs(Vewffe
p38
S'success'
p39
tp40
g4
(g5
g6
NtRp41
(dp42
g9
F1503087094.1233599
sg10
I0
sg11
g12
((lp43
F1503087094.1233599
aI60
tRp44
sg15
I60
sg16
g12
((lp45
I1
aI60
tRp46
sg19
I1
sg20
I60
sg21
F1503100805.8431649
sbs.